; Function Attrs: mustprogress nofree nounwind willreturn memory(read) uwtable
define hidden noundef ptr @_ZN7datalog17lazy_table_plugin3getEPKNS_10table_baseE(ptr noundef readonly %0) local_unnamed_addr #8 align 2 {
  %2 = icmp eq ptr %0, null
  br i1 %2, label %5, label %3

3:                                                ; preds = %1
  %4 = tail call ptr @__dynamic_cast(ptr nonnull %0, ptr nonnull @_ZTIN7datalog10table_baseE, ptr nonnull @_ZTIN7datalog10lazy_tableE, i64 0) #22
  br label %5

5:                                                ; preds = %1, %3
  %6 = phi ptr [ %4, %3 ], [ null, %1 ]
  ret ptr %6
}